; ModuleID = '15/2174.c'
source_filename = "15/2174.c"
target datalayout = "e-m:e-p270:32:32-p271:32:32-p272:64:64-i64:64-f80:128-n8:16:32:64-S128"
target triple = "x86_64-pc-linux-gnu"

@main.a = internal global [1002 x [1002 x i32]] zeroinitializer, align 16
@.str = private unnamed_addr constant [3 x i8] c"%d\00", align 1
@.str.1 = private unnamed_addr constant [4 x i8] c"%d\0A\00", align 1

; Function Attrs: noinline nounwind uwtable
define dso_local i32 @main() #0 {
  %1 = alloca i32, align 4
  %2 = alloca i32, align 4
  %3 = alloca i32, align 4
  %4 = alloca i32, align 4
  %5 = alloca i32, align 4
  %6 = alloca i32, align 4
  %7 = alloca i32, align 4
  %8 = alloca i32, align 4
  %9 = alloca i32, align 4
  store i32 0, i32* %1, align 4
  %10 = call i32 (i8*, ...) @__isoc99_scanf(i8* getelementptr inbounds ([3 x i8], [3 x i8]* @.str, i64 0, i64 0), i32* %2)
  store i32 1, i32* %8, align 4
  br label %11

11:                                               ; preds = %36, %0
  %12 = load i32, i32* %8, align 4
  %13 = load i32, i32* %2, align 4
  %14 = icmp sle i32 %12, %13
  br i1 %14, label %15, label %39

15:                                               ; preds = %11
  store i32 1, i32* %9, align 4
  br label %16

16:                                               ; preds = %32, %15
  %17 = load i32, i32* %9, align 4
  %18 = load i32, i32* %2, align 4
  %19 = icmp sle i32 %17, %18
  br i1 %19, label %20, label %35

20:                                               ; preds = %16
  %21 = call i32 (i8*, ...) @__isoc99_scanf(i8* getelementptr inbounds ([3 x i8], [3 x i8]* @.str, i64 0, i64 0), i32* %3)
  %22 = load i32, i32* %3, align 4
  %23 = icmp eq i32 %22, 0
  %24 = zext i1 %23 to i64
  %25 = select i1 %23, i32 1, i32 0
  %26 = load i32, i32* %8, align 4
  %27 = sext i32 %26 to i64
  %28 = getelementptr inbounds [1002 x [1002 x i32]], [1002 x [1002 x i32]]* @main.a, i64 0, i64 %27
  %29 = load i32, i32* %9, align 4
  %30 = sext i32 %29 to i64
  %31 = getelementptr inbounds [1002 x i32], [1002 x i32]* %28, i64 0, i64 %30
  store i32 %25, i32* %31, align 4
  br label %32

32:                                               ; preds = %20
  %33 = load i32, i32* %9, align 4
  %34 = add nsw i32 %33, 1
  store i32 %34, i32* %9, align 4
  br label %16

35:                                               ; preds = %16
  br label %36

36:                                               ; preds = %35
  %37 = load i32, i32* %8, align 4
  %38 = add nsw i32 %37, 1
  store i32 %38, i32* %8, align 4
  br label %11

39:                                               ; preds = %11
  store i32 1, i32* %8, align 4
  br label %40

40:                                               ; preds = %110, %39
  %41 = load i32, i32* %8, align 4
  %42 = load i32, i32* %2, align 4
  %43 = icmp sle i32 %41, %42
  br i1 %43, label %44, label %113

44:                                               ; preds = %40
  store i32 1, i32* %9, align 4
  br label %45

45:                                               ; preds = %106, %44
  %46 = load i32, i32* %9, align 4
  %47 = load i32, i32* %2, align 4
  %48 = icmp sle i32 %46, %47
  br i1 %48, label %49, label %109

49:                                               ; preds = %45
  %50 = load i32, i32* %8, align 4
  %51 = sext i32 %50 to i64
  %52 = getelementptr inbounds [1002 x [1002 x i32]], [1002 x [1002 x i32]]* @main.a, i64 0, i64 %51
  %53 = load i32, i32* %9, align 4
  %54 = sext i32 %53 to i64
  %55 = getelementptr inbounds [1002 x i32], [1002 x i32]* %52, i64 0, i64 %54
  %56 = load i32, i32* %55, align 4
  %57 = icmp eq i32 %56, 1
  br i1 %57, label %58, label %105

58:                                               ; preds = %49
  %59 = load i32, i32* %8, align 4
  %60 = sext i32 %59 to i64
  %61 = getelementptr inbounds [1002 x [1002 x i32]], [1002 x [1002 x i32]]* @main.a, i64 0, i64 %60
  %62 = load i32, i32* %9, align 4
  %63 = add nsw i32 %62, 1
  %64 = sext i32 %63 to i64
  %65 = getelementptr inbounds [1002 x i32], [1002 x i32]* %61, i64 0, i64 %64
  %66 = load i32, i32* %65, align 4
  %67 = icmp eq i32 %66, 1
  br i1 %67, label %68, label %81

68:                                               ; preds = %58
  %69 = load i32, i32* %8, align 4
  %70 = add nsw i32 %69, 1
  %71 = sext i32 %70 to i64
  %72 = getelementptr inbounds [1002 x [1002 x i32]], [1002 x [1002 x i32]]* @main.a, i64 0, i64 %71
  %73 = load i32, i32* %9, align 4
  %74 = sext i32 %73 to i64
  %75 = getelementptr inbounds [1002 x i32], [1002 x i32]* %72, i64 0, i64 %74
  %76 = load i32, i32* %75, align 4
  %77 = icmp eq i32 %76, 1
  br i1 %77, label %78, label %81

78:                                               ; preds = %68
  %79 = load i32, i32* %8, align 4
  store i32 %79, i32* %4, align 4
  %80 = load i32, i32* %9, align 4
  store i32 %80, i32* %6, align 4
  br label %81

81:                                               ; preds = %78, %68, %58
  %82 = load i32, i32* %8, align 4
  %83 = sext i32 %82 to i64
  %84 = getelementptr inbounds [1002 x [1002 x i32]], [1002 x [1002 x i32]]* @main.a, i64 0, i64 %83
  %85 = load i32, i32* %9, align 4
  %86 = sub nsw i32 %85, 1
  %87 = sext i32 %86 to i64
  %88 = getelementptr inbounds [1002 x i32], [1002 x i32]* %84, i64 0, i64 %87
  %89 = load i32, i32* %88, align 4
  %90 = icmp eq i32 %89, 1
  br i1 %90, label %91, label %104

91:                                               ; preds = %81
  %92 = load i32, i32* %8, align 4
  %93 = sub nsw i32 %92, 1
  %94 = sext i32 %93 to i64
  %95 = getelementptr inbounds [1002 x [1002 x i32]], [1002 x [1002 x i32]]* @main.a, i64 0, i64 %94
  %96 = load i32, i32* %9, align 4
  %97 = sext i32 %96 to i64
  %98 = getelementptr inbounds [1002 x i32], [1002 x i32]* %95, i64 0, i64 %97
  %99 = load i32, i32* %98, align 4
  %100 = icmp eq i32 %99, 1
  br i1 %100, label %101, label %104

101:                                              ; preds = %91
  %102 = load i32, i32* %8, align 4
  store i32 %102, i32* %5, align 4
  %103 = load i32, i32* %9, align 4
  store i32 %103, i32* %7, align 4
  br label %104

104:                                              ; preds = %101, %91, %81
  br label %105

105:                                              ; preds = %104, %49
  br label %106

106:                                              ; preds = %105
  %107 = load i32, i32* %9, align 4
  %108 = add nsw i32 %107, 1
  store i32 %108, i32* %9, align 4
  br label %45

109:                                              ; preds = %45
  br label %110

110:                                              ; preds = %109
  %111 = load i32, i32* %8, align 4
  %112 = add nsw i32 %111, 1
  store i32 %112, i32* %8, align 4
  br label %40

113:                                              ; preds = %40
  %114 = load i32, i32* %5, align 4
  %115 = load i32, i32* %4, align 4
  %116 = sub nsw i32 %114, %115
  %117 = sub nsw i32 %116, 1
  %118 = load i32, i32* %7, align 4
  %119 = load i32, i32* %6, align 4
  %120 = sub nsw i32 %118, %119
  %121 = sub nsw i32 %120, 1
  %122 = mul nsw i32 %117, %121
  %123 = call i32 (i8*, ...) @printf(i8* getelementptr inbounds ([4 x i8], [4 x i8]* @.str.1, i64 0, i64 0), i32 %122)
  ret i32 0
}

declare dso_local i32 @__isoc99_scanf(i8*, ...) #1

declare dso_local i32 @printf(i8*, ...) #1


!llvm.module.flags = !{!0}
!llvm.ident = !{!1}

!0 = !{i32 1, !"wchar_size", i32 4}
!1 = !{!"clang version 10.0.0-4ubuntu1 "}
